target datalayout = "e-m:e-p270:32:32-p271:32:32-p272:64:64-i64:64-i128:128-f80:128-n8:16:32:64-S128"
target triple = "x86_64-pc-linux-gnu"

@.str.1 = private unnamed_addr constant [20 x i8] c"toast_compression.c\00", align 1
@.str.2 = private unnamed_addr constant [37 x i8] c"compression method lz4 not supported\00", align 1
@.str.3 = private unnamed_addr constant [69 x i8] c"This functionality requires the server to be built with lz4 support.\00", align 1
@.str.4 = private unnamed_addr constant [5 x i8] c"pglz\00", align 1
@.str.5 = private unnamed_addr constant [4 x i8] c"lz4\00", align 1
@__func__.CompressionNameToMethod = private unnamed_addr constant [24 x i8] c"CompressionNameToMethod\00", align 1

; Function Attrs: nounwind uwtable
define dso_local signext i8 @CompressionNameToMethod(ptr noundef %0) #0 {
  %2 = alloca i8, align 1
  %3 = alloca ptr, align 8
  store ptr %0, ptr %3, align 8
  %4 = load ptr, ptr %3, align 8
  %5 = call i32 @strcmp(ptr noundef %4, ptr noundef @.str.4) #8
  %6 = icmp eq i32 %5, 0
  br i1 %6, label %7, label %8

7:                                                ; preds = %1
  store i8 112, ptr %2, align 1
  br label %26

8:                                                ; preds = %1
  %9 = load ptr, ptr %3, align 8
  %10 = call i32 @strcmp(ptr noundef %9, ptr noundef @.str.5) #8
  %11 = icmp eq i32 %10, 0
  br i1 %11, label %12, label %24

12:                                               ; preds = %8
  br label %13

13:                                               ; preds = %12
  br i1 true, label %14, label %16

14:                                               ; preds = %13
  %15 = call zeroext i1 @errstart_cold(i32 noundef 21, ptr noundef null) #7
  br i1 %15, label %18, label %22

16:                                               ; preds = %13
  %17 = call zeroext i1 @errstart(i32 noundef 21, ptr noundef null)
  br i1 %17, label %18, label %22

18:                                               ; preds = %16, %14
  %19 = call i32 @errcode(i32 noundef 1088)
  %20 = call i32 (ptr, ...) @errmsg(ptr noundef @.str.2)
  %21 = call i32 (ptr, ...) @errdetail(ptr noundef @.str.3)
  call void @errfinish(ptr noundef @.str.1, i32 noundef 292, ptr noundef @__func__.CompressionNameToMethod)
  br label %22

22:                                               ; preds = %18, %16, %14
  unreachable

23:                                               ; No predecessors!
  store i8 108, ptr %2, align 1
  br label %26

24:                                               ; preds = %8
  br label %25

25:                                               ; preds = %24
  store i8 0, ptr %2, align 1
  br label %26

26:                                               ; preds = %25, %23, %7
  %27 = load i8, ptr %2, align 1
  ret i8 %27
}