; Function Attrs: nounwind uwtable
define dso_local signext range(i8 0, 113) i8 @CompressionNameToMethod(ptr noundef readonly captures(none) %0) local_unnamed_addr #0 {
  %2 = tail call i32 @strcmp(ptr noundef nonnull dereferenceable(1) %0, ptr noundef nonnull dereferenceable(5) @.str.4) #9
  %3 = icmp eq i32 %2, 0
  br i1 %3, label %12, label %4

4:                                                ; preds = %1
  %5 = tail call i32 @strcmp(ptr noundef nonnull dereferenceable(1) %0, ptr noundef nonnull dereferenceable(4) @.str.5) #9
  %6 = icmp eq i32 %5, 0
  br i1 %6, label %7, label %12

7:                                                ; preds = %4
  %8 = tail call zeroext i1 @errstart_cold(i32 noundef 21, ptr noundef null) #8
  tail call void @llvm.assume(i1 %8)
  %9 = tail call i32 @errcode(i32 noundef 1088) #7
  %10 = tail call i32 (ptr, ...) @errmsg(ptr noundef nonnull @.str.2) #7
  %11 = tail call i32 (ptr, ...) @errdetail(ptr noundef nonnull @.str.3) #7
  tail call void @errfinish(ptr noundef nonnull @.str.1, i32 noundef 292, ptr noundef nonnull @__func__.CompressionNameToMethod) #7
  unreachable

12:                                               ; preds = %4, %1
  %.0 = phi i8 [ 112, %1 ], [ 0, %4 ]
  ret i8 %.0
}